ccopy_reg
_reconstructor
p1
(csklearn.pipeline
Pipeline
p2
c__builtin__
object
p3
NtRp4
(dp5
S'steps'
p6
(lp7
(S'vect'
g1
(csklearn.feature_extraction.text
CountVectorizer
p8
g3
NtRp9
(dp10
S'decode_error'
p11
Vstrict
p12
sS'lowercase'
p13
I01
sS'stop_words'
p14
NsS'vocabulary'
p15
NsS'tokenizer'
p16
NsS'encoding'
p17
Vutf-8
p18
sS'token_pattern'
p19
V(?u)\u005cb\u005cw\u005cw+\u005cb
p20
sS'max_df'
p21
F1
sS'analyzer'
p22
Vword
p23
sS'binary'
p24
I00
sS'ngram_range'
p25
(I1
I1
tp26
sS'preprocessor'
p27
NsS'min_df'
p28
I1
sS'max_features'
p29
NsS'input'
p30
Vcontent
p31
sS'dtype'
p32
cnumpy
int64
p33
sS'strip_accents'
p34
Nsbtp35
a(S'tfidf'
g1
(csklearn.feature_extraction.text
TfidfTransformer
p36
g3
NtRp37
(dp38
S'use_idf'
p39
I01
sS'smooth_idf'
p40
I01
sS'sublinear_tf'
p41
I00
sS'norm'
p42
Vl2
p43
sbtp44
a(S'clf'
p45
g1
(csklearn.naive_bayes
MultinomialNB
p46
g3
NtRp47
(dp48
S'alpha'
p49
F1
sS'fit_prior'
p50
I01
sS'class_prior'
p51
Nsbtp52
asb.